target datalayout = "e-m:e-p270:32:32-p271:32:32-p272:64:64-i64:64-i128:128-f80:128-n8:16:32:64-S128"
target triple = "x86_64-pc-linux-gnu"

%struct.H5B2_class_t = type { i32, ptr, i64, ptr, ptr, ptr, ptr, ptr, ptr, ptr }
%struct.H5D_chk_idx_info_t = type { ptr, ptr, ptr, ptr }
%struct.H5O_storage_chunk_t = type { i32, i64, ptr, %union.anon }
%union.anon = type { %struct.H5O_storage_chunk_btree_t }
%struct.H5O_storage_chunk_btree_t = type { i64, ptr }
%struct.H5O_storage_chunk_bt2_t = type { i64, ptr }
%struct.H5B2_create_t = type { ptr, i32, i32, i8, i8 }
%struct.H5D_bt2_ctx_ud_t = type { ptr, i32, i32, ptr }
%struct.H5O_layout_chunk_t = type { i32, i8, i32, [33 x i32], i32, i32, i64, i64, [33 x i64], [33 x i64], [33 x i64], [33 x i64], %union.anon.0 }
%union.anon.0 = type { %struct.H5O_layout_chunk_earray_t }
%struct.H5O_layout_chunk_earray_t = type { %struct.anon.1, i32, [33 x i32], [33 x i64], [33 x i64] }
%struct.anon.1 = type { i8, i8, i8, i8, i8 }
%struct.H5O_pline_t = type { %struct.H5O_shared_t, i32, i64, i64, ptr }
%struct.H5O_shared_t = type { i32, ptr, i32, %union.anon.3 }
%union.anon.3 = type { %struct.H5O_mesg_loc_t }
%struct.H5O_mesg_loc_t = type { i32, i64 }
%struct.H5O_layout_chunk_bt2_t = type { %struct.anon.2 }
%struct.anon.2 = type { i32, i8, i8 }

@H5D_BT2 = constant [1 x %struct.H5B2_class_t] [%struct.H5B2_class_t { i32 10, ptr @.str, i64 280, ptr @H5D__bt2_crt_context, ptr @H5D__bt2_dst_context, ptr @H5D__bt2_store, ptr @H5D__bt2_compare, ptr @H5D__bt2_unfilt_encode, ptr @H5D__bt2_unfilt_decode, ptr @H5D__bt2_unfilt_debug }], align 16
@H5D_BT2_FILT = constant [1 x %struct.H5B2_class_t] [%struct.H5B2_class_t { i32 11, ptr @.str.1, i64 280, ptr @H5D__bt2_crt_context, ptr @H5D__bt2_dst_context, ptr @H5D__bt2_store, ptr @H5D__bt2_compare, ptr @H5D__bt2_filt_encode, ptr @H5D__bt2_filt_decode, ptr @H5D__bt2_filt_debug }], align 16
@.str.2 = private unnamed_addr constant [103 x i8] c"generated/home/dtcxzyw/WorkSpace/Projects/compilers/llvm-opt-benchmark/bench/hdf5/hdf5/src/H5Dbtree2.c\00", align 1
@H5E_DATASET_g = external global i64, align 8
@__func__.H5D__bt2_idx_create = private unnamed_addr constant [20 x i8] c"H5D__bt2_idx_create\00", align 1
@H5E_CANTCREATE_g = external global i64, align 8
@.str.19 = private unnamed_addr constant [52 x i8] c"can't create v2 B-tree for tracking chunked dataset\00", align 1
@H5E_CANTGET_g = external global i64, align 8
@.str.20 = private unnamed_addr constant [57 x i8] c"can't get v2 B-tree address for tracking chunked dataset\00", align 1
@H5E_CANTDEPEND_g = external global i64, align 8
@.str.21 = private unnamed_addr constant [51 x i8] c"unable to create flush dependency on object header\00", align 1

; Function Attrs: nounwind uwtable
define internal i32 @H5VM_log2_gen(i64 noundef %0) #0 {
  %2 = alloca i64, align 8
  %3 = alloca i32, align 4
  %4 = alloca i32, align 4
  %5 = alloca i32, align 4
  %6 = alloca i32, align 4
  store i64 %0, ptr %2, align 8
  %7 = load i64, ptr %2, align 8
  %8 = lshr i64 %7, 32
  %9 = trunc i64 %8 to i32
  store i32 %9, ptr %6, align 4
  %10 = icmp ne i32 %9, 0
  br i1 %10, label %11, label %61

11:                                               ; preds = %1
  %12 = load i64, ptr %2, align 8
  %13 = lshr i64 %12, 48
  %14 = trunc i64 %13 to i32
  store i32 %14, ptr %5, align 4
  %15 = icmp ne i32 %14, 0
  br i1 %15, label %16, label %38

16:                                               ; preds = %11
  %17 = load i64, ptr %2, align 8
  %18 = lshr i64 %17, 56
  %19 = trunc i64 %18 to i32
  store i32 %19, ptr %4, align 4
  %20 = icmp ne i32 %19, 0
  br i1 %20, label %21, label %28

21:                                               ; preds = %16
  %22 = load i32, ptr %4, align 4
  %23 = zext i32 %22 to i64
  %24 = getelementptr inbounds [256 x i8], ptr @LogTable256, i64 0, i64 %23
  %25 = load i8, ptr %24, align 1
  %26 = zext i8 %25 to i32
  %27 = add i32 56, %26
  br label %36

28:                                               ; preds = %16
  %29 = load i32, ptr %5, align 4
  %30 = and i32 %29, 255
  %31 = zext i32 %30 to i64
  %32 = getelementptr inbounds [256 x i8], ptr @LogTable256, i64 0, i64 %31
  %33 = load i8, ptr %32, align 1
  %34 = zext i8 %33 to i32
  %35 = add i32 48, %34
  br label %36

36:                                               ; preds = %28, %21
  %37 = phi i32 [ %27, %21 ], [ %35, %28 ]
  store i32 %37, ptr %3, align 4
  br label %60

38:                                               ; preds = %11
  %39 = load i64, ptr %2, align 8
  %40 = lshr i64 %39, 40
  %41 = trunc i64 %40 to i32
  store i32 %41, ptr %4, align 4
  %42 = icmp ne i32 %41, 0
  br i1 %42, label %43, label %50

43:                                               ; preds = %38
  %44 = load i32, ptr %4, align 4
  %45 = zext i32 %44 to i64
  %46 = getelementptr inbounds [256 x i8], ptr @LogTable256, i64 0, i64 %45
  %47 = load i8, ptr %46, align 1
  %48 = zext i8 %47 to i32
  %49 = add i32 40, %48
  br label %58

50:                                               ; preds = %38
  %51 = load i32, ptr %6, align 4
  %52 = and i32 %51, 255
  %53 = zext i32 %52 to i64
  %54 = getelementptr inbounds [256 x i8], ptr @LogTable256, i64 0, i64 %53
  %55 = load i8, ptr %54, align 1
  %56 = zext i8 %55 to i32
  %57 = add i32 32, %56
  br label %58

58:                                               ; preds = %50, %43
  %59 = phi i32 [ %49, %43 ], [ %57, %50 ]
  store i32 %59, ptr %3, align 4
  br label %60

60:                                               ; preds = %58, %36
  br label %110

61:                                               ; preds = %1
  %62 = load i64, ptr %2, align 8
  %63 = lshr i64 %62, 16
  %64 = trunc i64 %63 to i32
  store i32 %64, ptr %5, align 4
  %65 = icmp ne i32 %64, 0
  br i1 %65, label %66, label %88

66:                                               ; preds = %61
  %67 = load i64, ptr %2, align 8
  %68 = lshr i64 %67, 24
  %69 = trunc i64 %68 to i32
  store i32 %69, ptr %4, align 4
  %70 = icmp ne i32 %69, 0
  br i1 %70, label %71, label %78

71:                                               ; preds = %66
  %72 = load i32, ptr %4, align 4
  %73 = zext i32 %72 to i64
  %74 = getelementptr inbounds [256 x i8], ptr @LogTable256, i64 0, i64 %73
  %75 = load i8, ptr %74, align 1
  %76 = zext i8 %75 to i32
  %77 = add i32 24, %76
  br label %86

78:                                               ; preds = %66
  %79 = load i32, ptr %5, align 4
  %80 = and i32 %79, 255
  %81 = zext i32 %80 to i64
  %82 = getelementptr inbounds [256 x i8], ptr @LogTable256, i64 0, i64 %81
  %83 = load i8, ptr %82, align 1
  %84 = zext i8 %83 to i32
  %85 = add i32 16, %84
  br label %86

86:                                               ; preds = %78, %71
  %87 = phi i32 [ %77, %71 ], [ %85, %78 ]
  store i32 %87, ptr %3, align 4
  br label %109

88:                                               ; preds = %61
  %89 = load i64, ptr %2, align 8
  %90 = lshr i64 %89, 8
  %91 = trunc i64 %90 to i32
  store i32 %91, ptr %4, align 4
  %92 = icmp ne i32 %91, 0
  br i1 %92, label %93, label %100

93:                                               ; preds = %88
  %94 = load i32, ptr %4, align 4
  %95 = zext i32 %94 to i64
  %96 = getelementptr inbounds [256 x i8], ptr @LogTable256, i64 0, i64 %95
  %97 = load i8, ptr %96, align 1
  %98 = zext i8 %97 to i32
  %99 = add i32 8, %98
  br label %107

100:                                              ; preds = %88
  %101 = load i64, ptr %2, align 8
  %102 = trunc i64 %101 to i8
  %103 = zext i8 %102 to i64
  %104 = getelementptr inbounds [256 x i8], ptr @LogTable256, i64 0, i64 %103
  %105 = load i8, ptr %104, align 1
  %106 = zext i8 %105 to i32
  br label %107

107:                                              ; preds = %100, %93
  %108 = phi i32 [ %99, %93 ], [ %106, %100 ]
  store i32 %108, ptr %3, align 4
  br label %109

109:                                              ; preds = %107, %86
  br label %110

110:                                              ; preds = %109, %60
  %111 = load i32, ptr %3, align 4
  ret i32 %111
}

; Function Attrs: nounwind uwtable
define internal i32 @H5D__bt2_idx_create(ptr noundef %0) #0 {
  %2 = alloca ptr, align 8
  %3 = alloca %struct.H5B2_create_t, align 8
  %4 = alloca %struct.H5D_bt2_ctx_ud_t, align 8
  %5 = alloca i32, align 4
  %6 = alloca i8, align 1
  %7 = alloca i32, align 4
  store ptr %0, ptr %2, align 8
  store i32 0, ptr %5, align 4
  store i8 0, ptr %6, align 1
  %8 = load ptr, ptr %2, align 8
  %9 = getelementptr inbounds %struct.H5D_chk_idx_info_t, ptr %8, i32 0, i32 0
  %10 = load ptr, ptr %9, align 8
  %11 = call zeroext i8 @H5F_sizeof_addr(ptr noundef %10)
  %12 = zext i8 %11 to i32
  %13 = load ptr, ptr %2, align 8
  %14 = getelementptr inbounds %struct.H5D_chk_idx_info_t, ptr %13, i32 0, i32 2
  %15 = load ptr, ptr %14, align 8
  %16 = getelementptr inbounds %struct.H5O_layout_chunk_t, ptr %15, i32 0, i32 2
  %17 = load i32, ptr %16, align 8
  %18 = sub i32 %17, 1
  %19 = mul i32 %18, 8
  %20 = add i32 %12, %19
  %21 = getelementptr inbounds %struct.H5B2_create_t, ptr %3, i32 0, i32 2
  store i32 %20, ptr %21, align 4
  %22 = load ptr, ptr %2, align 8
  %23 = getelementptr inbounds %struct.H5D_chk_idx_info_t, ptr %22, i32 0, i32 1
  %24 = load ptr, ptr %23, align 8
  %25 = getelementptr inbounds %struct.H5O_pline_t, ptr %24, i32 0, i32 3
  %26 = load i64, ptr %25, align 8
  %27 = icmp ugt i64 %26, 0
  br i1 %27, label %28, label %49

28:                                               ; preds = %1
  %29 = load ptr, ptr %2, align 8
  %30 = getelementptr inbounds %struct.H5D_chk_idx_info_t, ptr %29, i32 0, i32 2
  %31 = load ptr, ptr %30, align 8
  %32 = getelementptr inbounds %struct.H5O_layout_chunk_t, ptr %31, i32 0, i32 5
  %33 = load i32, ptr %32, align 4
  %34 = zext i32 %33 to i64
  %35 = call i32 @H5VM_log2_gen(i64 noundef %34)
  %36 = add i32 %35, 8
  %37 = udiv i32 %36, 8
  %38 = add i32 1, %37
  store i32 %38, ptr %7, align 4
  %39 = load i32, ptr %7, align 4
  %40 = icmp ugt i32 %39, 8
  br i1 %40, label %41, label %42

41:                                               ; preds = %28
  store i32 8, ptr %7, align 4
  br label %42

42:                                               ; preds = %41, %28
  %43 = load i32, ptr %7, align 4
  %44 = add i32 %43, 4
  %45 = getelementptr inbounds %struct.H5B2_create_t, ptr %3, i32 0, i32 2
  %46 = load i32, ptr %45, align 4
  %47 = add i32 %46, %44
  store i32 %47, ptr %45, align 4
  %48 = getelementptr inbounds %struct.H5B2_create_t, ptr %3, i32 0, i32 0
  store ptr @H5D_BT2_FILT, ptr %48, align 8
  br label %51

49:                                               ; preds = %1
  %50 = getelementptr inbounds %struct.H5B2_create_t, ptr %3, i32 0, i32 0
  store ptr @H5D_BT2, ptr %50, align 8
  br label %51

51:                                               ; preds = %49, %42
  %52 = load ptr, ptr %2, align 8
  %53 = getelementptr inbounds %struct.H5D_chk_idx_info_t, ptr %52, i32 0, i32 2
  %54 = load ptr, ptr %53, align 8
  %55 = getelementptr inbounds %struct.H5O_layout_chunk_t, ptr %54, i32 0, i32 12
  %56 = getelementptr inbounds %struct.H5O_layout_chunk_bt2_t, ptr %55, i32 0, i32 0
  %57 = getelementptr inbounds %struct.anon.2, ptr %56, i32 0, i32 0
  %58 = load i32, ptr %57, align 8
  %59 = getelementptr inbounds %struct.H5B2_create_t, ptr %3, i32 0, i32 1
  store i32 %58, ptr %59, align 8
  %60 = load ptr, ptr %2, align 8
  %61 = getelementptr inbounds %struct.H5D_chk_idx_info_t, ptr %60, i32 0, i32 2
  %62 = load ptr, ptr %61, align 8
  %63 = getelementptr inbounds %struct.H5O_layout_chunk_t, ptr %62, i32 0, i32 12
  %64 = getelementptr inbounds %struct.H5O_layout_chunk_bt2_t, ptr %63, i32 0, i32 0
  %65 = getelementptr inbounds %struct.anon.2, ptr %64, i32 0, i32 1
  %66 = load i8, ptr %65, align 4
  %67 = getelementptr inbounds %struct.H5B2_create_t, ptr %3, i32 0, i32 3
  store i8 %66, ptr %67, align 8
  %68 = load ptr, ptr %2, align 8
  %69 = getelementptr inbounds %struct.H5D_chk_idx_info_t, ptr %68, i32 0, i32 2
  %70 = load ptr, ptr %69, align 8
  %71 = getelementptr inbounds %struct.H5O_layout_chunk_t, ptr %70, i32 0, i32 12
  %72 = getelementptr inbounds %struct.H5O_layout_chunk_bt2_t, ptr %71, i32 0, i32 0
  %73 = getelementptr inbounds %struct.anon.2, ptr %72, i32 0, i32 2
  %74 = load i8, ptr %73, align 1
  %75 = getelementptr inbounds %struct.H5B2_create_t, ptr %3, i32 0, i32 4
  store i8 %74, ptr %75, align 1
  %76 = load ptr, ptr %2, align 8
  %77 = getelementptr inbounds %struct.H5D_chk_idx_info_t, ptr %76, i32 0, i32 0
  %78 = load ptr, ptr %77, align 8
  %79 = getelementptr inbounds %struct.H5D_bt2_ctx_ud_t, ptr %4, i32 0, i32 0
  store ptr %78, ptr %79, align 8
  %80 = load ptr, ptr %2, align 8
  %81 = getelementptr inbounds %struct.H5D_chk_idx_info_t, ptr %80, i32 0, i32 2
  %82 = load ptr, ptr %81, align 8
  %83 = getelementptr inbounds %struct.H5O_layout_chunk_t, ptr %82, i32 0, i32 2
  %84 = load i32, ptr %83, align 8
  %85 = sub i32 %84, 1
  %86 = getelementptr inbounds %struct.H5D_bt2_ctx_ud_t, ptr %4, i32 0, i32 2
  store i32 %85, ptr %86, align 4
  %87 = load ptr, ptr %2, align 8
  %88 = getelementptr inbounds %struct.H5D_chk_idx_info_t, ptr %87, i32 0, i32 2
  %89 = load ptr, ptr %88, align 8
  %90 = getelementptr inbounds %struct.H5O_layout_chunk_t, ptr %89, i32 0, i32 5
  %91 = load i32, ptr %90, align 4
  %92 = getelementptr inbounds %struct.H5D_bt2_ctx_ud_t, ptr %4, i32 0, i32 1
  store i32 %91, ptr %92, align 8
  %93 = load ptr, ptr %2, align 8
  %94 = getelementptr inbounds %struct.H5D_chk_idx_info_t, ptr %93, i32 0, i32 2
  %95 = load ptr, ptr %94, align 8
  %96 = getelementptr inbounds %struct.H5O_layout_chunk_t, ptr %95, i32 0, i32 3
  %97 = getelementptr inbounds [33 x i32], ptr %96, i64 0, i64 0
  %98 = getelementptr inbounds %struct.H5D_bt2_ctx_ud_t, ptr %4, i32 0, i32 3
  store ptr %97, ptr %98, align 8
  %99 = load ptr, ptr %2, align 8
  %100 = getelementptr inbounds %struct.H5D_chk_idx_info_t, ptr %99, i32 0, i32 0
  %101 = load ptr, ptr %100, align 8
  %102 = call ptr @H5B2_create(ptr noundef %101, ptr noundef %3, ptr noundef %4)
  %103 = load ptr, ptr %2, align 8
  %104 = getelementptr inbounds %struct.H5D_chk_idx_info_t, ptr %103, i32 0, i32 3
  %105 = load ptr, ptr %104, align 8
  %106 = getelementptr inbounds %struct.H5O_storage_chunk_t, ptr %105, i32 0, i32 3
  %107 = getelementptr inbounds %struct.H5O_storage_chunk_bt2_t, ptr %106, i32 0, i32 1
  store ptr %102, ptr %107, align 8
  %108 = icmp eq ptr null, %102
  br i1 %108, label %109, label %124

109:                                              ; preds = %51
  br label %110

110:                                              ; preds = %109
  br label %111

111:                                              ; preds = %110
  br label %112

112:                                              ; preds = %111
  %113 = load i64, ptr @H5E_DATASET_g, align 8
  %114 = load i64, ptr @H5E_CANTCREATE_g, align 8
  %115 = call i32 (ptr, ptr, i32, i64, i64, ptr, ...) @H5E_printf_stack(ptr noundef @.str.2, ptr noundef @__func__.H5D__bt2_idx_create, i32 noundef 698, i64 noundef %113, i64 noundef %114, ptr noundef @.str.19)
  br label %116

116:                                              ; preds = %112
  store i8 1, ptr %6, align 1
  %117 = load i8, ptr %6, align 1
  %118 = trunc i8 %117 to i1
  %119 = zext i1 %118 to i8
  store i8 %119, ptr %6, align 1
  br label %120

120:                                              ; preds = %116
  br label %121

121:                                              ; preds = %120
  store i32 -1, ptr %5, align 4
  br label %180

122:                                              ; No predecessors!
  br label %123

123:                                              ; preds = %122
  br label %124

124:                                              ; preds = %123, %51
  %125 = load ptr, ptr %2, align 8
  %126 = getelementptr inbounds %struct.H5D_chk_idx_info_t, ptr %125, i32 0, i32 3
  %127 = load ptr, ptr %126, align 8
  %128 = getelementptr inbounds %struct.H5O_storage_chunk_t, ptr %127, i32 0, i32 3
  %129 = getelementptr inbounds %struct.H5O_storage_chunk_bt2_t, ptr %128, i32 0, i32 1
  %130 = load ptr, ptr %129, align 8
  %131 = load ptr, ptr %2, align 8
  %132 = getelementptr inbounds %struct.H5D_chk_idx_info_t, ptr %131, i32 0, i32 3
  %133 = load ptr, ptr %132, align 8
  %134 = getelementptr inbounds %struct.H5O_storage_chunk_t, ptr %133, i32 0, i32 1
  %135 = call i32 @H5B2_get_addr(ptr noundef %130, ptr noundef %134)
  %136 = icmp slt i32 %135, 0
  br i1 %136, label %137, label %152

137:                                              ; preds = %124
  br label %138

138:                                              ; preds = %137
  br label %139

139:                                              ; preds = %138
  br label %140

140:                                              ; preds = %139
  %141 = load i64, ptr @H5E_DATASET_g, align 8
  %142 = load i64, ptr @H5E_CANTGET_g, align 8
  %143 = call i32 (ptr, ptr, i32, i64, i64, ptr, ...) @H5E_printf_stack(ptr noundef @.str.2, ptr noundef @__func__.H5D__bt2_idx_create, i32 noundef 703, i64 noundef %141, i64 noundef %142, ptr noundef @.str.20)
  br label %144

144:                                              ; preds = %140
  store i8 1, ptr %6, align 1
  %145 = load i8, ptr %6, align 1
  %146 = trunc i8 %145 to i1
  %147 = zext i1 %146 to i8
  store i8 %147, ptr %6, align 1
  br label %148

148:                                              ; preds = %144
  br label %149

149:                                              ; preds = %148
  store i32 -1, ptr %5, align 4
  br label %180

150:                                              ; No predecessors!
  br label %151

151:                                              ; preds = %150
  br label %152

152:                                              ; preds = %151, %124
  %153 = load ptr, ptr %2, align 8
  %154 = getelementptr inbounds %struct.H5D_chk_idx_info_t, ptr %153, i32 0, i32 0
  %155 = load ptr, ptr %154, align 8
  %156 = call i32 @H5F_get_intent(ptr noundef %155)
  %157 = and i32 %156, 32
  %158 = icmp ne i32 %157, 0
  br i1 %158, label %159, label %179

159:                                              ; preds = %152
  %160 = load ptr, ptr %2, align 8
  %161 = call i32 @H5D__btree2_idx_depend(ptr noundef %160)
  %162 = icmp slt i32 %161, 0
  br i1 %162, label %163, label %178

163:                                              ; preds = %159
  br label %164

164:                                              ; preds = %163
  br label %165

165:                                              ; preds = %164
  br label %166

166:                                              ; preds = %165
  %167 = load i64, ptr @H5E_DATASET_g, align 8
  %168 = load i64, ptr @H5E_CANTDEPEND_g, align 8
  %169 = call i32 (ptr, ptr, i32, i64, i64, ptr, ...) @H5E_printf_stack(ptr noundef @.str.2, ptr noundef @__func__.H5D__bt2_idx_create, i32 noundef 709, i64 noundef %167, i64 noundef %168, ptr noundef @.str.21)
  br label %170

170:                                              ; preds = %166
  store i8 1, ptr %6, align 1
  %171 = load i8, ptr %6, align 1
  %172 = trunc i8 %171 to i1
  %173 = zext i1 %172 to i8
  store i8 %173, ptr %6, align 1
  br label %174

174:                                              ; preds = %170
  br label %175

175:                                              ; preds = %174
  store i32 -1, ptr %5, align 4
  br label %180

176:                                              ; No predecessors!
  br label %177

177:                                              ; preds = %176
  br label %178

178:                                              ; preds = %177, %159
  br label %179

179:                                              ; preds = %178, %152
  br label %180

180:                                              ; preds = %179, %175, %149, %121
  %181 = load i32, ptr %5, align 4
  ret i32 %181
}