; Function Attrs: nounwind uwtable
define internal range(i32 -1, 1) i32 @H5D__bt2_idx_create(ptr nocapture noundef readonly %0) #1 {
  %2 = alloca %struct.H5B2_create_t, align 8
  %3 = alloca %struct.H5D_bt2_ctx_ud_t, align 8
  %4 = load ptr, ptr %0, align 8
  %5 = tail call zeroext i8 @H5F_sizeof_addr(ptr noundef %4) #14
  %6 = zext i8 %5 to i32
  %7 = getelementptr inbounds i8, ptr %0, i64 16
  %8 = load ptr, ptr %7, align 8
  %9 = getelementptr inbounds i8, ptr %8, i64 8
  %10 = load i32, ptr %9, align 8
  %11 = shl i32 %10, 3
  %12 = add nsw i32 %6, -8
  %13 = add i32 %12, %11
  %14 = getelementptr inbounds i8, ptr %2, i64 12
  store i32 %13, ptr %14, align 4
  %15 = getelementptr inbounds i8, ptr %0, i64 8
  %16 = load ptr, ptr %15, align 8
  %17 = getelementptr inbounds i8, ptr %16, i64 56
  %18 = load i64, ptr %17, align 8
  %.not = icmp eq i64 %18, 0
  %.phi.trans.insert = getelementptr inbounds i8, ptr %8, i64 148
  %.pre = load i32, ptr %.phi.trans.insert, align 4
  br i1 %.not, label %._crit_edge, label %19

19:                                               ; preds = %1
  %20 = zext i32 %.pre to i64
  %21 = lshr i64 %20, 16
  %.not.i = icmp ult i32 %.pre, 65536
  br i1 %.not.i, label %35, label %22

22:                                               ; preds = %19
  %.not24.i = icmp ult i32 %.pre, 16777216
  br i1 %.not24.i, label %29, label %23

23:                                               ; preds = %22
  %24 = lshr i64 %20, 24
  %25 = getelementptr inbounds [256 x i8], ptr @LogTable256, i64 0, i64 %24
  %26 = load i8, ptr %25, align 1
  %27 = zext i8 %26 to i32
  %28 = add nuw nsw i32 %27, 24
  br label %H5VM_log2_gen.exit

29:                                               ; preds = %22
  %30 = and i64 %21, 255
  %31 = getelementptr inbounds [256 x i8], ptr @LogTable256, i64 0, i64 %30
  %32 = load i8, ptr %31, align 1
  %33 = zext i8 %32 to i32
  %34 = add nuw nsw i32 %33, 16
  br label %H5VM_log2_gen.exit

35:                                               ; preds = %19
  %.not23.i = icmp ult i32 %.pre, 256
  br i1 %.not23.i, label %42, label %36

36:                                               ; preds = %35
  %37 = lshr i64 %20, 8
  %38 = getelementptr inbounds [256 x i8], ptr @LogTable256, i64 0, i64 %37
  %39 = load i8, ptr %38, align 1
  %40 = zext i8 %39 to i32
  %41 = add nuw nsw i32 %40, 8
  br label %H5VM_log2_gen.exit

42:                                               ; preds = %35
  %43 = getelementptr inbounds [256 x i8], ptr @LogTable256, i64 0, i64 %20
  %44 = load i8, ptr %43, align 1
  %45 = zext i8 %44 to i32
  br label %H5VM_log2_gen.exit

H5VM_log2_gen.exit:                               ; preds = %23, %29, %36, %42
  %.0.i = phi i32 [ %28, %23 ], [ %34, %29 ], [ %41, %36 ], [ %45, %42 ]
  %46 = add nuw nsw i32 %.0.i, 8
  %47 = lshr i32 %46, 3
  %48 = tail call i32 @llvm.umin.i32(i32 %47, i32 7)
  %49 = add i32 %13, 5
  %50 = add i32 %49, %48
  store i32 %50, ptr %14, align 4
  br label %._crit_edge

._crit_edge:                                      ; preds = %1, %H5VM_log2_gen.exit
  %storemerge = phi ptr [ @H5D_BT2_FILT, %H5VM_log2_gen.exit ], [ @H5D_BT2, %1 ]
  store ptr %storemerge, ptr %2, align 8
  %51 = getelementptr inbounds i8, ptr %8, i64 1224
  %52 = load i32, ptr %51, align 8
  %53 = getelementptr inbounds i8, ptr %2, i64 8
  store i32 %52, ptr %53, align 8
  %54 = getelementptr inbounds i8, ptr %8, i64 1228
  %55 = load i8, ptr %54, align 4
  %56 = getelementptr inbounds i8, ptr %2, i64 16
  store i8 %55, ptr %56, align 8
  %57 = getelementptr inbounds i8, ptr %8, i64 1229
  %58 = load i8, ptr %57, align 1
  %59 = getelementptr inbounds i8, ptr %2, i64 17
  store i8 %58, ptr %59, align 1
  %60 = load ptr, ptr %0, align 8
  store ptr %60, ptr %3, align 8
  %61 = add i32 %10, -1
  %62 = getelementptr inbounds i8, ptr %3, i64 12
  store i32 %61, ptr %62, align 4
  %63 = getelementptr inbounds i8, ptr %3, i64 8
  store i32 %.pre, ptr %63, align 8
  %64 = getelementptr inbounds i8, ptr %8, i64 12
  %65 = getelementptr inbounds i8, ptr %3, i64 16
  store ptr %64, ptr %65, align 8
  %66 = call ptr @H5B2_create(ptr noundef %60, ptr noundef nonnull %2, ptr noundef nonnull %3) #14
  %67 = getelementptr inbounds i8, ptr %0, i64 24
  %68 = load ptr, ptr %67, align 8
  %69 = getelementptr inbounds i8, ptr %68, i64 32
  store ptr %66, ptr %69, align 8
  %70 = icmp eq ptr %66, null
  br i1 %70, label %71, label %75

71:                                               ; preds = %._crit_edge
  %72 = load i64, ptr @H5E_DATASET_g, align 8
  %73 = load i64, ptr @H5E_CANTCREATE_g, align 8
  %74 = call i32 (ptr, ptr, i32, i64, i64, ptr, ...) @H5E_printf_stack(ptr noundef nonnull @.str.2, ptr noundef nonnull @__func__.H5D__bt2_idx_create, i32 noundef 698, i64 noundef %72, i64 noundef %73, ptr noundef nonnull @.str.19) #14
  br label %97

75:                                               ; preds = %._crit_edge
  %76 = load ptr, ptr %67, align 8
  %77 = getelementptr inbounds i8, ptr %76, i64 32
  %78 = load ptr, ptr %77, align 8
  %79 = getelementptr inbounds i8, ptr %76, i64 8
  %80 = call i32 @H5B2_get_addr(ptr noundef %78, ptr noundef nonnull %79) #14
  %81 = icmp slt i32 %80, 0
  br i1 %81, label %82, label %86

82:                                               ; preds = %75
  %83 = load i64, ptr @H5E_DATASET_g, align 8
  %84 = load i64, ptr @H5E_CANTGET_g, align 8
  %85 = call i32 (ptr, ptr, i32, i64, i64, ptr, ...) @H5E_printf_stack(ptr noundef nonnull @.str.2, ptr noundef nonnull @__func__.H5D__bt2_idx_create, i32 noundef 703, i64 noundef %83, i64 noundef %84, ptr noundef nonnull @.str.20) #14
  br label %97

86:                                               ; preds = %75
  %87 = load ptr, ptr %0, align 8
  %88 = call i32 @H5F_get_intent(ptr noundef %87) #14
  %89 = and i32 %88, 32
  %.not22 = icmp eq i32 %89, 0
  br i1 %.not22, label %97, label %90

90:                                               ; preds = %86
  %91 = call fastcc i32 @H5D__btree2_idx_depend(ptr noundef nonnull %0)
  %92 = icmp slt i32 %91, 0
  br i1 %92, label %93, label %97

93:                                               ; preds = %90
  %94 = load i64, ptr @H5E_DATASET_g, align 8
  %95 = load i64, ptr @H5E_CANTDEPEND_g, align 8
  %96 = call i32 (ptr, ptr, i32, i64, i64, ptr, ...) @H5E_printf_stack(ptr noundef nonnull @.str.2, ptr noundef nonnull @__func__.H5D__bt2_idx_create, i32 noundef 709, i64 noundef %94, i64 noundef %95, ptr noundef nonnull @.str.21) #14
  br label %97

97:                                               ; preds = %86, %90, %93, %82, %71
  %.0 = phi i32 [ -1, %71 ], [ -1, %82 ], [ -1, %93 ], [ 0, %90 ], [ 0, %86 ]
  ret i32 %.0
}